; Function Attrs: mustprogress nounwind uwtable
define internal fastcc void @_ZL19decodeXTHeadMemPairRN4llvm6MCInstEjmPKNS_14MCDisassemblerE(ptr noundef nonnull align 8 dereferenceable(128) %0, i32 noundef %1, ptr noundef nonnull readonly captures(none) %2) unnamed_addr #0 {
  %4 = lshr i32 %1, 7
  %5 = and i32 %4, 31
  %6 = lshr i32 %1, 15
  %7 = and i32 %6, 31
  %8 = lshr i32 %1, 20
  %9 = and i32 %8, 31
  %10 = lshr i32 %1, 25
  %11 = and i32 %10, 3
  %12 = getelementptr i8, ptr %2, i64 16
  %.val30 = load ptr, ptr %12, align 8
  %13 = getelementptr i8, ptr %.val30, i64 216
  %.val30.val = load i64, ptr %13, align 8
  %14 = tail call fastcc noundef i32 @_ZL22DecodeGPRRegisterClassRN4llvm6MCInstEjmPKNS_14MCDisassemblerE(ptr noundef nonnull align 8 dereferenceable(128) %0, i32 noundef %5, i64 %.val30.val)
  %.val29 = load ptr, ptr %12, align 8
  %15 = getelementptr i8, ptr %.val29, i64 216
  %.val29.val = load i64, ptr %15, align 8
  %16 = tail call fastcc noundef i32 @_ZL22DecodeGPRRegisterClassRN4llvm6MCInstEjmPKNS_14MCDisassemblerE(ptr noundef nonnull align 8 dereferenceable(128) %0, i32 noundef %9, i64 %.val29.val)
  %.val28 = load ptr, ptr %12, align 8
  %17 = getelementptr i8, ptr %.val28, i64 216
  %.val28.val = load i64, ptr %17, align 8
  %18 = tail call fastcc noundef i32 @_ZL22DecodeGPRRegisterClassRN4llvm6MCInstEjmPKNS_14MCDisassemblerE(ptr noundef nonnull align 8 dereferenceable(128) %0, i32 noundef %7, i64 %.val28.val)
  %19 = getelementptr inbounds nuw i8, ptr %0, i64 16
  %20 = tail call noundef i64 @_ZNK4llvm15SmallVectorBaseIjE4sizeEv(ptr noundef nonnull align 8 dereferenceable(16) %19) #10
  %21 = add i64 %20, 1
  %22 = tail call noundef i64 @_ZNK4llvm15SmallVectorBaseIjE8capacityEv(ptr noundef nonnull align 8 dereferenceable(16) %19) #10
  %.not.i.i.i.i.i = icmp ugt i64 %21, %22
  br i1 %.not.i.i.i.i.i, label %23, label %_ZL17decodeUImmOperandILj2EEN4llvm14MCDisassembler12DecodeStatusERNS0_6MCInstEjlPKS1_.exit

23:                                               ; preds = %3
  %24 = getelementptr inbounds nuw i8, ptr %0, i64 32
  tail call void @_ZN4llvm15SmallVectorBaseIjE8grow_podEPvmm(ptr noundef nonnull align 8 dereferenceable(16) %19, ptr noundef nonnull %24, i64 noundef %21, i64 noundef 16) #10
  br label %_ZL17decodeUImmOperandILj2EEN4llvm14MCDisassembler12DecodeStatusERNS0_6MCInstEjlPKS1_.exit

_ZL17decodeUImmOperandILj2EEN4llvm14MCDisassembler12DecodeStatusERNS0_6MCInstEjlPKS1_.exit: ; preds = %3, %23
  %25 = zext nneg i32 %11 to i64
  %26 = load ptr, ptr %19, align 8
  %27 = tail call noundef i64 @_ZNK4llvm15SmallVectorBaseIjE4sizeEv(ptr noundef nonnull align 8 dereferenceable(16) %19) #10
  %28 = getelementptr inbounds %"class.llvm::MCOperand", ptr %26, i64 %27
  store i8 2, ptr %28, align 1
  %.sroa.22.0..sroa_idx.i.i.i = getelementptr inbounds nuw i8, ptr %28, i64 8
  store i64 %25, ptr %.sroa.22.0..sroa_idx.i.i.i, align 1
  %29 = tail call noundef i64 @_ZNK4llvm15SmallVectorBaseIjE4sizeEv(ptr noundef nonnull align 8 dereferenceable(16) %19) #10
  %30 = add i64 %29, 1
  tail call void @_ZN4llvm15SmallVectorBaseIjE8set_sizeEm(ptr noundef nonnull align 8 dereferenceable(16) %19, i64 noundef %30) #10
  %31 = load i32, ptr %0, align 8
  switch i32 %31, label %32 [
    i32 13043, label %.critedge
    i32 13040, label %.critedge
    i32 13074, label %.critedge
  ]

32:                                               ; preds = %_ZL17decodeUImmOperandILj2EEN4llvm14MCDisassembler12DecodeStatusERNS0_6MCInstEjlPKS1_.exit
  %33 = tail call noundef i64 @_ZNK4llvm15SmallVectorBaseIjE4sizeEv(ptr noundef nonnull align 8 dereferenceable(16) %19) #10
  %34 = add i64 %33, 1
  %35 = tail call noundef i64 @_ZNK4llvm15SmallVectorBaseIjE8capacityEv(ptr noundef nonnull align 8 dereferenceable(16) %19) #10
  %.not.i.i.i.i = icmp ugt i64 %34, %35
  br i1 %.not.i.i.i.i, label %_ZN4llvm6MCInst10addOperandENS_9MCOperandE.exit.sink.split, label %_ZN4llvm6MCInst10addOperandENS_9MCOperandE.exit

.critedge:                                        ; preds = %_ZL17decodeUImmOperandILj2EEN4llvm14MCDisassembler12DecodeStatusERNS0_6MCInstEjlPKS1_.exit, %_ZL17decodeUImmOperandILj2EEN4llvm14MCDisassembler12DecodeStatusERNS0_6MCInstEjlPKS1_.exit, %_ZL17decodeUImmOperandILj2EEN4llvm14MCDisassembler12DecodeStatusERNS0_6MCInstEjlPKS1_.exit
  %36 = tail call noundef i64 @_ZNK4llvm15SmallVectorBaseIjE4sizeEv(ptr noundef nonnull align 8 dereferenceable(16) %19) #10
  %37 = add i64 %36, 1
  %38 = tail call noundef i64 @_ZNK4llvm15SmallVectorBaseIjE8capacityEv(ptr noundef nonnull align 8 dereferenceable(16) %19) #10
  %.not.i.i.i.i31 = icmp ugt i64 %37, %38
  br i1 %.not.i.i.i.i31, label %_ZN4llvm6MCInst10addOperandENS_9MCOperandE.exit.sink.split, label %_ZN4llvm6MCInst10addOperandENS_9MCOperandE.exit

_ZN4llvm6MCInst10addOperandENS_9MCOperandE.exit.sink.split: ; preds = %.critedge, %32
  %.sink43 = phi i64 [ %34, %32 ], [ %37, %.critedge ]
  %.sink.ph = phi i64 [ 4, %32 ], [ 3, %.critedge ]
  %39 = getelementptr inbounds nuw i8, ptr %0, i64 32
  tail call void @_ZN4llvm15SmallVectorBaseIjE8grow_podEPvmm(ptr noundef nonnull align 8 dereferenceable(16) %19, ptr noundef nonnull %39, i64 noundef %.sink43, i64 noundef 16) #10
  br label %_ZN4llvm6MCInst10addOperandENS_9MCOperandE.exit

_ZN4llvm6MCInst10addOperandENS_9MCOperandE.exit:  ; preds = %_ZN4llvm6MCInst10addOperandENS_9MCOperandE.exit.sink.split, %.critedge, %32
  %.sink = phi i64 [ 4, %32 ], [ 3, %.critedge ], [ %.sink.ph, %_ZN4llvm6MCInst10addOperandENS_9MCOperandE.exit.sink.split ]
  %40 = load ptr, ptr %19, align 8
  %41 = tail call noundef i64 @_ZNK4llvm15SmallVectorBaseIjE4sizeEv(ptr noundef nonnull align 8 dereferenceable(16) %19) #10
  %42 = getelementptr inbounds %"class.llvm::MCOperand", ptr %40, i64 %41
  store i8 2, ptr %42, align 1
  %.sroa.22.0..sroa_idx.i.i = getelementptr inbounds nuw i8, ptr %42, i64 8
  store i64 %.sink, ptr %.sroa.22.0..sroa_idx.i.i, align 1
  %43 = tail call noundef i64 @_ZNK4llvm15SmallVectorBaseIjE4sizeEv(ptr noundef nonnull align 8 dereferenceable(16) %19) #10
  %44 = add i64 %43, 1
  tail call void @_ZN4llvm15SmallVectorBaseIjE8set_sizeEm(ptr noundef nonnull align 8 dereferenceable(16) %19, i64 noundef %44) #10
  ret void
}